target datalayout = "e-m:e-p270:32:32-p271:32:32-p272:64:64-i64:64-i128:128-f80:128-n8:16:32:64-S128"
target triple = "x86_64-pc-linux-gnu"

@threads_on_hold = internal global i32 0, align 4

; Function Attrs: nounwind uwtable
define internal void @thread_hold(i32 noundef %0) #0 {
  %2 = alloca i32, align 4
  store i32 %0, ptr %2, align 4
  store volatile i32 1, ptr @threads_on_hold, align 4
  br label %3

3:                                                ; preds = %6, %1
  %4 = load volatile i32, ptr @threads_on_hold, align 4
  %5 = icmp ne i32 %4, 0
  br i1 %5, label %6, label %8

6:                                                ; preds = %3
  %7 = call i32 @sleep(i32 noundef 1)
  br label %3

8:                                                ; preds = %3
  ret void
}