; Function Attrs: nounwind uwtable
define internal void @thread_hold(i32 %0) #0 {
  store volatile i32 1, ptr @threads_on_hold, align 4
  %2 = load volatile i32, ptr @threads_on_hold, align 4
  %.not1 = icmp eq i32 %2, 0
  br i1 %.not1, label %._crit_edge, label %.lr.ph

.lr.ph:                                           ; preds = %1, %.lr.ph
  %3 = tail call i32 @sleep(i32 noundef 1) #14
  %4 = load volatile i32, ptr @threads_on_hold, align 4
  %.not = icmp eq i32 %4, 0
  br i1 %.not, label %._crit_edge, label %.lr.ph

._crit_edge:                                      ; preds = %.lr.ph, %1
  ret void
}